target datalayout = "e-m:e-p270:32:32-p271:32:32-p272:64:64-i64:64-i128:128-f80:128-n8:16:32:64-S128"
target triple = "x86_64-pc-linux-gnu"

%class.ref_vector = type { %class.ref_vector_core }
%class.ref_vector_core = type { %class.ref_manager_wrapper, %class.ptr_vector }
%class.ref_manager_wrapper = type { ptr }
%class.ptr_vector = type { %class.vector }
%class.vector = type { ptr }
%class.small_object_allocator = type { [32 x ptr], [32 x ptr], i64 }
%class.num_occurs = type { ptr, i8, i8, [6 x i8], %class.obj_map.33 }
%class.obj_map.33 = type { %class.core_hashtable.34 }
%class.core_hashtable.34 = type <{ ptr, i32, i32, i32, [4 x i8] }>
%class.ctx_simplify_tactic = type { %class.tactic.base, ptr, %class.params_ref }
%class.tactic.base = type <{ %"class.user_propagator::core", i32 }>
%"class.user_propagator::core" = type { ptr }
%class.params_ref = type { ptr }
%"struct.ctx_simplify_tactic::imp" = type <{ ptr, ptr, %class.small_object_allocator, %class.svector.38, %class.vector.40, i32, i32, %class.goal_num_occurs, %class.mk_simplified_app, i64, i32, i32, i8, [7 x i8] }>
%class.svector.38 = type { %class.vector.39 }
%class.vector.39 = type { ptr }
%class.vector.40 = type { ptr }
%class.goal_num_occurs = type { %class.num_occurs, %class.ref_vector }
%class.mk_simplified_app = type { ptr }

; Function Attrs: mustprogress uwtable
define linkonce_odr hidden void @_Z7deallocIN19ctx_simplify_tactic3impEEvPT_(ptr noundef %0) #4 comdat {
  %2 = alloca ptr, align 8
  store ptr %0, ptr %2, align 8, !tbaa !148
  %3 = load ptr, ptr %2, align 8, !tbaa !148
  %4 = icmp eq ptr %3, null
  br i1 %4, label %5, label %6

5:                                                ; preds = %1
  br label %9

6:                                                ; preds = %1
  %7 = load ptr, ptr %2, align 8, !tbaa !148
  call void @_ZN19ctx_simplify_tactic3impD2Ev(ptr noundef nonnull align 8 dereferenceable(641) %7) #3
  %8 = load ptr, ptr %2, align 8, !tbaa !148
  call void @_ZN6memory10deallocateEPv(ptr noundef %8)
  br label %9

9:                                                ; preds = %6, %5
  ret void
}

; Function Attrs: inlinehint mustprogress nounwind uwtable
define linkonce_odr hidden void @_ZSt4swapIPN19ctx_simplify_tactic3impEENSt9enable_ifIXsr6__and_ISt6__not_ISt15__is_tuple_likeIT_EESt21is_move_constructibleIS6_ESt18is_move_assignableIS6_EEE5valueEvE4typeERS6_SF_(ptr noundef nonnull align 8 dereferenceable(8) %0, ptr noundef nonnull align 8 dereferenceable(8) %1) #5 comdat {
  %3 = alloca ptr, align 8
  %4 = alloca ptr, align 8
  %5 = alloca ptr, align 8
  store ptr %0, ptr %3, align 8, !tbaa !183
  store ptr %1, ptr %4, align 8, !tbaa !183
  call void @llvm.lifetime.start.p0(i64 8, ptr %5) #3
  %6 = load ptr, ptr %3, align 8, !tbaa !183
  %7 = load ptr, ptr %6, align 8, !tbaa !148
  store ptr %7, ptr %5, align 8, !tbaa !148
  %8 = load ptr, ptr %4, align 8, !tbaa !183
  %9 = load ptr, ptr %8, align 8, !tbaa !148
  %10 = load ptr, ptr %3, align 8, !tbaa !183
  store ptr %9, ptr %10, align 8, !tbaa !148
  %11 = load ptr, ptr %5, align 8, !tbaa !148
  %12 = load ptr, ptr %4, align 8, !tbaa !183
  store ptr %11, ptr %12, align 8, !tbaa !148
  call void @llvm.lifetime.end.p0(i64 8, ptr %5) #3
  ret void
}

; Function Attrs: mustprogress uwtable
define hidden void @_ZN19ctx_simplify_tactic7cleanupEv(ptr noundef nonnull align 8 dereferenceable(32) %0) unnamed_addr #4 align 2 {
  %2 = alloca ptr, align 8
  %3 = alloca ptr, align 8
  %4 = alloca ptr, align 8
  store ptr %0, ptr %2, align 8, !tbaa !136
  %5 = load ptr, ptr %2, align 8
  call void @llvm.lifetime.start.p0(i64 8, ptr %3) #3
  %6 = getelementptr inbounds nuw %class.ctx_simplify_tactic, ptr %5, i32 0, i32 1
  %7 = load ptr, ptr %6, align 8, !tbaa !138
  %8 = getelementptr inbounds nuw %"struct.ctx_simplify_tactic::imp", ptr %7, i32 0, i32 0
  %9 = load ptr, ptr %8, align 8, !tbaa !164
  store ptr %9, ptr %3, align 8, !tbaa !8
  call void @llvm.lifetime.start.p0(i64 8, ptr %4) #3
  %10 = call noalias noundef ptr @_ZN6memory8allocateEm(i64 noundef 648)
  %11 = load ptr, ptr %3, align 8, !tbaa !8
  %12 = getelementptr inbounds nuw %class.ctx_simplify_tactic, ptr %5, i32 0, i32 1
  %13 = load ptr, ptr %12, align 8, !tbaa !138
  %14 = getelementptr inbounds nuw %"struct.ctx_simplify_tactic::imp", ptr %13, i32 0, i32 1
  %15 = load ptr, ptr %14, align 8, !tbaa !149
  %16 = load ptr, ptr %3, align 8, !tbaa !8
  %17 = load ptr, ptr %15, align 8, !tbaa !10
  %18 = getelementptr inbounds ptr, ptr %17, i64 6
  %19 = load ptr, ptr %18, align 8
  %20 = call noundef ptr %19(ptr noundef nonnull align 8 dereferenceable(16) %15, ptr noundef nonnull align 8 dereferenceable(976) %16)
  %21 = getelementptr inbounds nuw %class.ctx_simplify_tactic, ptr %5, i32 0, i32 2
  call void @_ZN19ctx_simplify_tactic3impC2ER11ast_managerPNS_10simplifierERK10params_ref(ptr noundef nonnull align 8 dereferenceable(641) %10, ptr noundef nonnull align 8 dereferenceable(976) %11, ptr noundef %20, ptr noundef nonnull align 8 dereferenceable(8) %21)
  store ptr %10, ptr %4, align 8, !tbaa !148
  %22 = getelementptr inbounds nuw %class.ctx_simplify_tactic, ptr %5, i32 0, i32 1
  call void @_ZSt4swapIPN19ctx_simplify_tactic3impEENSt9enable_ifIXsr6__and_ISt6__not_ISt15__is_tuple_likeIT_EESt21is_move_constructibleIS6_ESt18is_move_assignableIS6_EEE5valueEvE4typeERS6_SF_(ptr noundef nonnull align 8 dereferenceable(8) %4, ptr noundef nonnull align 8 dereferenceable(8) %22) #3
  %23 = load ptr, ptr %4, align 8, !tbaa !148
  call void @_Z7deallocIN19ctx_simplify_tactic3impEEvPT_(ptr noundef %23)
  call void @llvm.lifetime.end.p0(i64 8, ptr %4) #3
  call void @llvm.lifetime.end.p0(i64 8, ptr %3) #3
  ret void
}