; Function Attrs: mustprogress uwtable
define hidden void @_ZN19ctx_simplify_tactic7cleanupEv(ptr noundef nonnull align 8 dereferenceable(32) %0) unnamed_addr #3 align 2 {
  %2 = getelementptr inbounds nuw i8, ptr %0, i64 16
  %3 = load ptr, ptr %2, align 8, !tbaa !86
  %4 = load ptr, ptr %3, align 8, !tbaa !107
  %5 = tail call noalias noundef ptr @_ZN6memory8allocateEm(i64 noundef 648)
  %6 = load ptr, ptr %2, align 8, !tbaa !86
  %7 = getelementptr inbounds nuw i8, ptr %6, i64 8
  %8 = load ptr, ptr %7, align 8, !tbaa !91
  %9 = load ptr, ptr %8, align 8, !tbaa !3
  %10 = getelementptr inbounds nuw i8, ptr %9, i64 48
  %11 = load ptr, ptr %10, align 8
  %12 = tail call noundef ptr %11(ptr noundef nonnull align 8 dereferenceable(16) %8, ptr noundef nonnull align 8 dereferenceable(976) %4)
  %13 = getelementptr inbounds nuw i8, ptr %0, i64 24
  tail call void @_ZN19ctx_simplify_tactic3impC2ER11ast_managerPNS_10simplifierERK10params_ref(ptr noundef nonnull align 8 dereferenceable(641) %5, ptr noundef nonnull align 8 dereferenceable(976) %4, ptr noundef %12, ptr noundef nonnull align 8 dereferenceable(8) %13)
  %14 = load ptr, ptr %2, align 8, !tbaa !159
  store ptr %5, ptr %2, align 8, !tbaa !159
  %15 = icmp eq ptr %14, null
  br i1 %15, label %_Z7deallocIN19ctx_simplify_tactic3impEEvPT_.exit, label %16

16:                                               ; preds = %1
  tail call void @_ZN19ctx_simplify_tactic3impD2Ev(ptr noundef nonnull align 8 dereferenceable(641) %14) #19
  tail call void @_ZN6memory10deallocateEPv(ptr noundef nonnull %14)
  br label %_Z7deallocIN19ctx_simplify_tactic3impEEvPT_.exit

_Z7deallocIN19ctx_simplify_tactic3impEEvPT_.exit: ; preds = %1, %16
  ret void
}